(dp0
(I00
I5
I5
tp1
F0.6013
s(I00
I7
I14
tp2
F0.6039
s(I01
I8
I13
tp3
F0.6012
s(I01
I14
I9
tp4
F0.6397
s(I00
I10
I4
tp5
F0.4359
s(I01
I4
I7
tp6
F0.4222
s(I00
I13
I14
tp7
F0.6657
s(I00
I11
I4
tp8
F0.4557
s(I00
I9
I3
tp9
F0.3957
s(I01
I14
I2
tp10
F0.5576
s(I00
I5
I7
tp11
F0.413
s(I00
I7
I12
tp12
F0.5345
s(I00
I10
I6
tp13
F0.4676
s(I01
I11
I10
tp14
F0.5943
s(I00
I13
I8
tp15
F0.5848
s(I01
I10
I3
tp16
F0.4548
s(I01
I3
I12
tp17
F0.5094
s(I01
I12
I11
tp18
F0.6081
s(I00
I7
I10
tp19
F0.4906
s(I01
I7
I14
tp20
F0.6182
s(I00
I10
I8
tp21
F0.5006
s(I00
I12
I3
tp22
F0.4876
s(I01
I11
I8
tp23
F0.5504
s(I00
I13
I10
tp24
F0.6059
s(I01
I10
I5
tp25
F0.4809
s(I00
I2
I3
tp26
F0.2841
s(I00
I4
I10
tp27
F0.4354
s(I01
I5
I10
tp28
F0.4839
s(I00
I5
I3
tp29
F0.3358
s(I00
I7
I8
tp30
F0.4556
s(I01
I10
I13
tp31
F0.6284
s(I00
I10
I10
tp32
F0.7454
s(I01
I11
I6
tp33
F0.5226
s(I00
I11
I5
tp34
F0.4773
s(I00
I2
I5
tp35
F0.316
s(I00
I4
I8
tp36
F0.3937
s(I00
I8
I14
tp37
F0.6149
s(I00
I7
I6
tp38
F0.4373
s(I00
I14
I11
tp39
F0.6458
s(I00
I10
I12
tp40
F0.5895
s(I00
I12
I7
tp41
F0.5344
s(I00
I14
I8
tp42
F0.6097
s(I01
I5
I14
tp43
F0.6014
s(I01
I10
I9
tp44
F0.5584
s(I01
I13
I2
tp45
F0.5333
s(I01
I9
I14
tp46
F0.6409
s(I00
I2
I7
tp47
F0.3401
s(I00
I4
I14
tp48
F0.5696
s(I01
I7
I8
tp49
F0.4939
s(I00
I7
I4
tp50
F0.3934
s(I01
I7
I13
tp51
F0.5978
s(I00
I10
I14
tp52
F0.6458
s(I00
I12
I5
tp53
F0.507
s(I01
I4
I8
tp54
F0.426
s(I01
I10
I11
tp55
F0.5768
s(I01
I14
I6
tp56
F0.6047
s(I00
I4
I12
tp57
F0.497
s(I00
I8
I10
tp58
F0.5122
s(I00
I7
I2
tp59
F0.3356
s(I01
I14
I11
tp60
F0.6672
s(I00
I12
I11
tp61
F0.5941
s(I01
I12
I13
tp62
F0.6412
s(I00
I11
I10
tp63
F0.5645
s(I01
I8
I6
tp64
F0.4768
s(I01
I14
I3
tp65
F0.5707
s(I00
I4
I2
tp66
F0.2988
s(I00
I6
I13
tp67
F0.553
s(I00
I8
I8
tp68
F0.6972
s(I01
I2
I6
tp69
F0.3677
s(I00
I9
I5
tp70
F0.4318
s(I00
I12
I9
tp71
F0.5709
s(I00
I14
I4
tp72
F0.565
s(I01
I8
I4
tp73
F0.4309
s(I01
I13
I14
tp74
F0.6829
s(I01
I3
I5
tp75
F0.3734
s(I00
I8
I6
tp76
F0.4445
s(I01
I5
I7
tp77
F0.4413
s(I01
I7
I12
tp78
F0.556
s(I00
I14
I6
tp79
F0.5897
s(I01
I5
I3
tp80
F0.3766
s(I01
I8
I10
tp81
F0.538
s(I00
I4
I6
tp82
F0.3889
s(I00
I6
I9
tp83
F0.4522
s(I00
I8
I4
tp84
F0.4037
s(I00
I9
I9
tp85
F0.7221
s(I01
I6
I12
tp86
F0.5494
s(I00
I12
I13
tp87
F0.6313
s(I01
I4
I2
tp88
F0.3403
s(I00
I11
I11
tp89
F0.7801
s(I00
I3
I11
tp90
F0.4562
s(I00
I4
I4
tp91
F0.5669
s(I00
I6
I11
tp92
F0.4906
s(I00
I8
I2
tp93
F0.357
s(I01
I5
I12
tp94
F0.5418
s(I00
I9
I11
tp95
F0.5454
s(I01
I6
I14
tp96
F0.6144
s(I01
I10
I7
tp97
F0.5163
s(I00
I14
I2
tp98
F0.5301
s(I01
I8
I14
tp99
F0.6328
s(I00
I3
I9
tp100
F0.3949
s(I00
I6
I3
tp101
F0.357
s(I00
I6
I5
tp102
F0.3964
s(I00
I12
I8
tp103
F0.5583
s(I01
I7
I3
tp104
F0.3967
s(I01
I6
I8
tp105
F0.4609
s(I00
I14
I12
tp106
F0.6559
s(I01
I13
I12
tp107
F0.6419
s(I01
I13
I4
tp108
F0.5515
s(I01
I14
I4
tp109
F0.5883
s(I01
I3
I13
tp110
F0.5416
s(I01
I11
I9
tp111
F0.5706
s(I01
I6
I10
tp112
F0.5051
s(I00
I14
I14
tp113
F0.8598
s(I01
I4
I14
tp114
F0.5912
s(I00
I3
I13
tp115
F0.5186
s(I01
I2
I12
tp116
F0.4937
s(I01
I3
I11
tp117
F0.4807
s(I01
I12
I7
tp118
F0.5573
s(I01
I6
I4
tp119
F0.4066
s(I00
I9
I13
tp120
F0.5937
s(I01
I9
I5
tp121
F0.46
s(I00
I3
I3
tp122
F0.5321
s(I00
I5
I12
tp123
F0.5086
s(I00
I6
I2
tp124
F0.3359
s(I01
I3
I9
tp125
F0.4282
s(I01
I13
I9
tp126
F0.6238
s(I01
I9
I3
tp127
F0.4356
s(I01
I7
I2
tp128
F0.3743
s(I00
I11
I8
tp129
F0.5206
s(I00
I13
I5
tp130
F0.5467
s(I00
I14
I10
tp131
F0.6333
s(I01
I9
I7
tp132
F0.5084
s(I01
I5
I13
tp133
F0.5748
s(I00
I5
I14
tp134
F0.5828
s(I00
I11
I14
tp135
F0.6473
s(I00
I13
I7
tp136
F0.5709
s(I01
I8
I12
tp137
F0.57
s(I01
I12
I8
tp138
F0.576
s(I00
I11
I9
tp139
F0.5537
s(I00
I3
I7
tp140
F0.365
s(I01
I12
I2
tp141
F0.4966
s(I01
I2
I13
tp142
F0.5257
s(I01
I4
I12
tp143
F0.5186
s(I01
I7
I11
tp144
F0.5409
s(I01
I6
I2
tp145
F0.3729
s(I01
I4
I11
tp146
F0.5023
s(I01
I4
I9
tp147
F0.4367
s(I01
I9
I11
tp148
F0.5711
s(I00
I2
I8
tp149
F0.3619
s(I00
I3
I5
tp150
F0.3392
s(I00
I5
I10
tp151
F0.4428
s(I01
I13
I8
tp152
F0.6012
s(I00
I10
I3
tp153
F0.4181
s(I01
I3
I14
tp154
F0.5695
s(I00
I13
I3
tp155
F0.5107
s(I01
I2
I11
tp156
F0.4627
s(I01
I9
I13
tp157
F0.6121
s(I00
I2
I10
tp158
F0.4087
s(I01
I5
I4
tp159
F0.3996
s(I01
I12
I14
tp160
F0.6715
s(I01
I3
I6
tp161
F0.3854
s(I00
I10
I5
tp162
F0.4464
s(I01
I14
I10
tp163
F0.6554
s(I01
I11
I13
tp164
F0.6422
s(I00
I13
I13
tp165
F0.8342
s(I01
I12
I9
tp166
F0.5917
s(I01
I14
I8
tp167
F0.6399
s(I00
I5
I6
tp168
F0.3982
s(I01
I2
I9
tp169
F0.4113
s(I01
I4
I13
tp170
F0.5537
s(I00
I10
I7
tp171
F0.4968
s(I00
I11
I2
tp172
F0.4365
s(I01
I4
I5
tp173
F0.395
s(I01
I10
I2
tp174
F0.4547
s(I01
I5
I2
tp175
F0.3542
s(I00
I2
I14
tp176
F0.5328
s(I01
I12
I10
tp177
F0.6004
s(I00
I7
I13
tp178
F0.5677
s(I01
I13
I11
tp179
F0.6362
s(I00
I10
I9
tp180
F0.5263
s(I01
I14
I7
tp181
F0.6142
s(I00
I13
I9
tp182
F0.5967
s(I01
I10
I4
tp183
F0.4718
s(I00
I6
I8
tp184
F0.4396
s(I01
I13
I7
tp185
F0.5852
s(I00
I4
I11
tp186
F0.469
s(I00
I5
I2
tp187
F0.3119
s(I00
I7
I11
tp188
F0.5211
s(I00
I10
I11
tp189
F0.5655
s(I00
I12
I2
tp190
F0.469
s(I01
I11
I7
tp191
F0.5376
s(I00
I13
I11
tp192
F0.6198
s(I01
I10
I6
tp193
F0.4956
s(I01
I14
I12
tp194
F0.6792
s(I00
I2
I2
tp195
F0.5021
s(I00
I4
I9
tp196
F0.4115
s(I00
I7
I9
tp197
F0.471
s(I00
I5
I8
tp198
F0.4135
s(I00
I10
I13
tp199
F0.6058
s(I00
I11
I3
tp200
F0.45
s(I01
I11
I5
tp201
F0.5083
s(I01
I10
I8
tp202
F0.542
s(I00
I2
I4
tp203
F0.2917
s(I01
I2
I8
tp204
F0.3974
s(I00
I8
I13
tp205
F0.5726
s(I00
I7
I7
tp206
F0.6583
s(I01
I2
I10
tp207
F0.438
s(I01
I13
I10
tp208
F0.6282
s(I01
I7
I5
tp209
F0.4422
s(I00
I12
I6
tp210
F0.5222
s(I01
I11
I3
tp211
F0.4745
s(I01
I8
I3
tp212
F0.4112
s(I01
I3
I7
tp213
F0.3902
s(I00
I2
I6
tp214
F0.341
s(I00
I4
I13
tp215
F0.528
s(I01
I4
I6
tp216
F0.4201
s(I00
I8
I11
tp217
F0.5305
s(I00
I7
I5
tp218
F0.4133
s(I00
I9
I2
tp219
F0.3816
s(I00
I12
I4
tp220
F0.4994
s(I00
I9
I7
tp221
F0.4736
s(I00
I11
I12
tp222
F0.5949
s(I00
I4
I3
tp223
F0.3301
s(I00
I8
I9
tp224
F0.4891
s(I00
I7
I3
tp225
F0.3638
s(I00
I9
I4
tp226
F0.4234
s(I01
I12
I3
tp227
F0.509
s(I00
I12
I10
tp228
F0.5871
s(I00
I14
I5
tp229
F0.5738
s(I01
I10
I14
tp230
F0.6566
s(I01
I8
I7
tp231
F0.4913
s(I00
I6
I12
tp232
F0.5248
s(I00
I8
I7
tp233
F0.4708
s(I01
I2
I7
tp234
F0.3704
s(I00
I9
I6
tp235
F0.4599
s(I01
I7
I6
tp236
F0.4579
s(I00
I14
I7
tp237
F0.6042
s(I01
I8
I5
tp238
F0.4665
s(I01
I5
I9
tp239
F0.4628
s(I00
I4
I7
tp240
F0.3961
s(I00
I6
I14
tp241
F0.5956
s(I00
I8
I5
tp242
F0.4254
s(I00
I9
I8
tp243
F0.4885
s(I01
I11
I4
tp244
F0.4846
s(I01
I2
I4
tp245
F0.3322
s(I00
I12
I14
tp246
F0.6512
s(I01
I8
I11
tp247
F0.5525
s(I00
I3
I10
tp248
F0.4267
s(I00
I11
I13
tp249
F0.6194
s(I00
I4
I5
tp250
F0.3576
s(I01
I3
I2
tp251
F0.3237
s(I00
I8
I3
tp252
F0.37
s(I00
I9
I10
tp253
F0.5283
s(I01
I6
I13
tp254
F0.575
s(I00
I12
I12
tp255
F0.8024
s(I00
I14
I3
tp256
F0.5414
s(I01
I8
I2
tp257
F0.4021
s(I01
I8
I9
tp258
F0.526
s(I00
I3
I8
tp259
F0.3767
s(I01
I2
I14
tp260
F0.5614
s(I00
I6
I10
tp261
F0.4747
s(I01
I10
I12
tp262
F0.601
s(I00
I9
I12
tp263
F0.5707
s(I00
I14
I13
tp264
F0.6573
s(I00
I3
I14
tp265
F0.5492
s(I01
I5
I8
tp266
F0.4509
s(I01
I7
I9
tp267
F0.5051
s(I00
I9
I14
tp268
F0.6224
s(I01
I6
I9
tp269
F0.4845
s(I01
I13
I3
tp270
F0.5265
s(I00
I8
I12
tp271
F0.5478
s(I00
I3
I12
tp272
F0.4872
s(I00
I6
I6
tp273
F0.6396
s(I01
I6
I11
tp274
F0.5176
s(I00
I11
I6
tp275
F0.489
s(I00
I14
I9
tp276
F0.6184
s(I01
I9
I2
tp277
F0.4238
s(I00
I3
I2
tp278
F0.288
s(I01
I12
I6
tp279
F0.5532
s(I01
I3
I10
tp280
F0.4529
s(I01
I6
I5
tp281
F0.4318
s(I00
I13
I4
tp282
F0.5278
s(I01
I7
I4
tp283
F0.4099
s(I00
I2
I12
tp284
F0.4715
s(I01
I9
I4
tp285
F0.4452
s(I00
I6
I4
tp286
F0.3819
s(I01
I11
I12
tp287
F0.6151
s(I00
I5
I13
tp288
F0.5482
s(I01
I3
I8
tp289
F0.4094
s(I01
I11
I2
tp290
F0.4652
s(I01
I6
I7
tp291
F0.4606
s(I00
I13
I6
tp292
F0.5488
s(I01
I14
I13
tp293
F0.6807
s(I01
I5
I6
tp294
F0.4364
s(I01
I4
I3
tp295
F0.355
s(I00
I3
I6
tp296
F0.3508
s(I01
I12
I5
tp297
F0.5416
s(I01
I13
I6
tp298
F0.5808
s(I01
I2
I5
tp299
F0.3505
s(I01
I2
I3
tp300
F0.3168
s(I00
I5
I4
tp301
F0.3588
s(I01
I4
I10
tp302
F0.4663
s(I00
I11
I7
tp303
F0.5152
s(I01
I9
I8
tp304
F0.5173
s(I00
I2
I9
tp305
F0.3896
s(I00
I3
I4
tp306
F0.323
s(I00
I5
I9
tp307
F0.4329
s(I01
I13
I5
tp308
F0.574
s(I01
I14
I5
tp309
F0.6038
s(I01
I7
I10
tp310
F0.5191
s(I01
I6
I3
tp311
F0.397
s(I00
I13
I2
tp312
F0.5056
s(I01
I9
I10
tp313
F0.5467
s(I00
I2
I11
tp314
F0.4383
s(I00
I6
I7
tp315
F0.4395
s(I00
I5
I11
tp316
F0.4847
s(I01
I3
I4
tp317
F0.3544
s(I01
I5
I11
tp318
F0.5077
s(I00
I10
I2
tp319
F0.4188
s(I01
I11
I14
tp320
F0.6606
s(I00
I13
I12
tp321
F0.6302
s(I01
I9
I6
tp322
F0.4911
s(I01
I12
I4
tp323
F0.5206
s(I01
I9
I12
tp324
F0.591
s(I00
I2
I13
tp325
F0.505
s.